; Function Attrs: mustprogress uwtable
define void @_ZN7lodepng16getPNGHeaderInfoERKSt6vectorIhSaIhEE(ptr dead_on_unwind noalias writable writeonly sret(%struct.LodePNGInfo) align 8 captures(none) %0, ptr noundef nonnull readonly align 8 captures(none) dereferenceable(24) %1) local_unnamed_addr #0 personality ptr @__gxx_personality_v0 {
  %3 = alloca i32, align 4
  %4 = alloca i32, align 4
  %5 = alloca %"class.lodepng::State", align 8
  call void @llvm.lifetime.start.p0(i64 4, ptr nonnull %3) #27
  call void @llvm.lifetime.start.p0(i64 4, ptr nonnull %4) #27
  call void @llvm.lifetime.start.p0(i64 640, ptr nonnull %5) #27
  call void @_ZN7lodepng5StateC1Ev(ptr noundef nonnull align 8 dereferenceable(640) %5)
  %6 = load ptr, ptr %1, align 8, !tbaa !3
  %7 = getelementptr inbounds nuw i8, ptr %1, i64 8
  %8 = load ptr, ptr %7, align 8, !tbaa !3
  %9 = icmp eq ptr %6, %8
  %spec.select = select i1 %9, ptr null, ptr %6
  %10 = ptrtoint ptr %8 to i64
  %11 = ptrtoint ptr %6 to i64
  %12 = sub i64 %10, %11
  %13 = invoke noundef i32 @_Z15lodepng_inspectPjS_P12LodePNGStatePKhm(ptr noundef nonnull %3, ptr noundef nonnull %4, ptr noundef nonnull %5, ptr noundef %spec.select, i64 noundef %12)
          to label %14 unwind label %16

14:                                               ; preds = %2
  %15 = getelementptr inbounds nuw i8, ptr %5, i64 208
  call void @llvm.memcpy.p0.p0.i64(ptr noundef nonnull align 8 dereferenceable(424) %0, ptr noundef nonnull align 8 dereferenceable(424) %15, i64 424, i1 false), !tbaa.struct !8
  call void @_ZN7lodepng5StateD1Ev(ptr noundef nonnull align 8 dereferenceable(640) %5) #27
  call void @llvm.lifetime.end.p0(i64 640, ptr nonnull %5) #27
  call void @llvm.lifetime.end.p0(i64 4, ptr nonnull %4) #27
  call void @llvm.lifetime.end.p0(i64 4, ptr nonnull %3) #27
  ret void

16:                                               ; preds = %2
  %17 = landingpad { ptr, i32 }
          cleanup
  call void @_ZN7lodepng5StateD1Ev(ptr noundef nonnull align 8 dereferenceable(640) %5) #27
  call void @llvm.lifetime.end.p0(i64 640, ptr nonnull %5) #27
  call void @llvm.lifetime.end.p0(i64 4, ptr nonnull %4) #27
  call void @llvm.lifetime.end.p0(i64 4, ptr nonnull %3) #27
  resume { ptr, i32 } %17
}